target datalayout = "e-m:e-p270:32:32-p271:32:32-p272:64:64-i64:64-i128:128-f80:128-n8:16:32:64-S128"
target triple = "x86_64-unknown-linux-gnu"

%"struct.node::inspector::protocol::Status" = type { i32, i64 }
%"class.node::inspector::protocol::StreamingParserHandler" = type { ptr }
%"class.std::stack" = type { %"class.std::deque" }
%"class.std::deque" = type { %"class.std::_Deque_base" }
%"class.std::_Deque_base" = type { %"struct.std::_Deque_base<node::inspector::protocol::json::(anonymous namespace)::State, std::allocator<node::inspector::protocol::json::(anonymous namespace)::State>>::_Deque_impl" }
%"struct.std::_Deque_base<node::inspector::protocol::json::(anonymous namespace)::State, std::allocator<node::inspector::protocol::json::(anonymous namespace)::State>>::_Deque_impl" = type { %"struct.std::_Deque_base<node::inspector::protocol::json::(anonymous namespace)::State, std::allocator<node::inspector::protocol::json::(anonymous namespace)::State>>::_Deque_impl_data" }
%"struct.std::_Deque_base<node::inspector::protocol::json::(anonymous namespace)::State, std::allocator<node::inspector::protocol::json::(anonymous namespace)::State>>::_Deque_impl_data" = type { ptr, i64, %"struct.std::_Deque_iterator", %"struct.std::_Deque_iterator" }
%"struct.std::_Deque_iterator" = type { ptr, ptr, ptr, ptr }
%"class.node::inspector::protocol::json::(anonymous namespace)::JSONEncoder.193" = type { %"class.node::inspector::protocol::StreamingParserHandler", ptr, ptr, ptr, %"class.std::stack" }
%"class.node::inspector::protocol::json::(anonymous namespace)::State" = type { i32, i32 }

; Function Attrs: mustprogress nounwind uwtable
define linkonce_odr dso_local noundef i64 @_ZSt16__deque_buf_sizem(i64 noundef %__size) #0 comdat {
entry:
  %__size.addr = alloca i64, align 8
  store i64 %__size, ptr %__size.addr, align 8
  %0 = load i64, ptr %__size.addr, align 8
  %cmp = icmp ult i64 %0, 512
  br i1 %cmp, label %cond.true, label %cond.false

cond.true:                                        ; preds = %entry
  %1 = load i64, ptr %__size.addr, align 8
  %div = udiv i64 512, %1
  br label %cond.end

cond.false:                                       ; preds = %entry
  br label %cond.end

cond.end:                                         ; preds = %cond.false, %cond.true
  %cond = phi i64 [ %div, %cond.true ], [ 1, %cond.false ]
  ret i64 %cond
}

; Function Attrs: mustprogress nounwind uwtable
define internal noundef i64 @_ZNSt15_Deque_iteratorIN4node9inspector8protocol4json12_GLOBAL__N_15StateERS5_PS5_E14_S_buffer_sizeEv() #0 align 2 {
entry:
  %call = call noundef i64 @_ZSt16__deque_buf_sizem(i64 noundef 8)
  ret i64 %call
}

; Function Attrs: mustprogress nounwind uwtable
define internal void @_ZNSt15_Deque_iteratorIN4node9inspector8protocol4json12_GLOBAL__N_15StateERS5_PS5_E11_M_set_nodeEPS7_(ptr noundef nonnull align 8 dereferenceable(32) %this, ptr noundef %__new_node) #0 align 2 {
entry:
  %this.addr = alloca ptr, align 8
  %__new_node.addr = alloca ptr, align 8
  store ptr %this, ptr %this.addr, align 8
  store ptr %__new_node, ptr %__new_node.addr, align 8
  %this1 = load ptr, ptr %this.addr, align 8
  %0 = load ptr, ptr %__new_node.addr, align 8
  %_M_node = getelementptr inbounds %"struct.std::_Deque_iterator", ptr %this1, i32 0, i32 3
  store ptr %0, ptr %_M_node, align 8
  %1 = load ptr, ptr %__new_node.addr, align 8
  %2 = load ptr, ptr %1, align 8
  %_M_first = getelementptr inbounds %"struct.std::_Deque_iterator", ptr %this1, i32 0, i32 1
  store ptr %2, ptr %_M_first, align 8
  %_M_first2 = getelementptr inbounds %"struct.std::_Deque_iterator", ptr %this1, i32 0, i32 1
  %3 = load ptr, ptr %_M_first2, align 8
  %call = call noundef i64 @_ZNSt15_Deque_iteratorIN4node9inspector8protocol4json12_GLOBAL__N_15StateERS5_PS5_E14_S_buffer_sizeEv() #13
  %add.ptr = getelementptr inbounds %"class.node::inspector::protocol::json::(anonymous namespace)::State", ptr %3, i64 %call
  %_M_last = getelementptr inbounds %"struct.std::_Deque_iterator", ptr %this1, i32 0, i32 2
  store ptr %add.ptr, ptr %_M_last, align 8
  ret void
}

; Function Attrs: mustprogress nounwind uwtable
define internal void @_ZNSt15_Deque_iteratorIN4node9inspector8protocol4json12_GLOBAL__N_15StateERS5_PS5_EC2ERKS8_(ptr noundef nonnull align 8 dereferenceable(32) %this, ptr noundef nonnull align 8 dereferenceable(32) %__x) unnamed_addr #0 align 2 {
entry:
  %this.addr = alloca ptr, align 8
  %__x.addr = alloca ptr, align 8
  store ptr %this, ptr %this.addr, align 8
  store ptr %__x, ptr %__x.addr, align 8
  %this1 = load ptr, ptr %this.addr, align 8
  %_M_cur = getelementptr inbounds %"struct.std::_Deque_iterator", ptr %this1, i32 0, i32 0
  %0 = load ptr, ptr %__x.addr, align 8
  %_M_cur2 = getelementptr inbounds %"struct.std::_Deque_iterator", ptr %0, i32 0, i32 0
  %1 = load ptr, ptr %_M_cur2, align 8
  store ptr %1, ptr %_M_cur, align 8
  %_M_first = getelementptr inbounds %"struct.std::_Deque_iterator", ptr %this1, i32 0, i32 1
  %2 = load ptr, ptr %__x.addr, align 8
  %_M_first3 = getelementptr inbounds %"struct.std::_Deque_iterator", ptr %2, i32 0, i32 1
  %3 = load ptr, ptr %_M_first3, align 8
  store ptr %3, ptr %_M_first, align 8
  %_M_last = getelementptr inbounds %"struct.std::_Deque_iterator", ptr %this1, i32 0, i32 2
  %4 = load ptr, ptr %__x.addr, align 8
  %_M_last4 = getelementptr inbounds %"struct.std::_Deque_iterator", ptr %4, i32 0, i32 2
  %5 = load ptr, ptr %_M_last4, align 8
  store ptr %5, ptr %_M_last, align 8
  %_M_node = getelementptr inbounds %"struct.std::_Deque_iterator", ptr %this1, i32 0, i32 3
  %6 = load ptr, ptr %__x.addr, align 8
  %_M_node5 = getelementptr inbounds %"struct.std::_Deque_iterator", ptr %6, i32 0, i32 3
  %7 = load ptr, ptr %_M_node5, align 8
  store ptr %7, ptr %_M_node, align 8
  ret void
}

; Function Attrs: mustprogress nounwind uwtable
define internal noundef nonnull align 4 dereferenceable(8) ptr @_ZNKSt15_Deque_iteratorIN4node9inspector8protocol4json12_GLOBAL__N_15StateERS5_PS5_EdeEv(ptr noundef nonnull align 8 dereferenceable(32) %this) #0 align 2 {
entry:
  %this.addr = alloca ptr, align 8
  store ptr %this, ptr %this.addr, align 8
  %this1 = load ptr, ptr %this.addr, align 8
  %_M_cur = getelementptr inbounds %"struct.std::_Deque_iterator", ptr %this1, i32 0, i32 0
  %0 = load ptr, ptr %_M_cur, align 8
  ret ptr %0
}

; Function Attrs: mustprogress nounwind uwtable
define internal noundef nonnull align 8 dereferenceable(32) ptr @_ZNSt15_Deque_iteratorIN4node9inspector8protocol4json12_GLOBAL__N_15StateERS5_PS5_EmmEv(ptr noundef nonnull align 8 dereferenceable(32) %this) #0 align 2 {
entry:
  %this.addr = alloca ptr, align 8
  store ptr %this, ptr %this.addr, align 8
  %this1 = load ptr, ptr %this.addr, align 8
  %_M_cur = getelementptr inbounds %"struct.std::_Deque_iterator", ptr %this1, i32 0, i32 0
  %0 = load ptr, ptr %_M_cur, align 8
  %_M_first = getelementptr inbounds %"struct.std::_Deque_iterator", ptr %this1, i32 0, i32 1
  %1 = load ptr, ptr %_M_first, align 8
  %cmp = icmp eq ptr %0, %1
  br i1 %cmp, label %if.then, label %if.end

if.then:                                          ; preds = %entry
  %_M_node = getelementptr inbounds %"struct.std::_Deque_iterator", ptr %this1, i32 0, i32 3
  %2 = load ptr, ptr %_M_node, align 8
  %add.ptr = getelementptr inbounds ptr, ptr %2, i64 -1
  call void @_ZNSt15_Deque_iteratorIN4node9inspector8protocol4json12_GLOBAL__N_15StateERS5_PS5_E11_M_set_nodeEPS7_(ptr noundef nonnull align 8 dereferenceable(32) %this1, ptr noundef %add.ptr) #13
  %_M_last = getelementptr inbounds %"struct.std::_Deque_iterator", ptr %this1, i32 0, i32 2
  %3 = load ptr, ptr %_M_last, align 8
  %_M_cur2 = getelementptr inbounds %"struct.std::_Deque_iterator", ptr %this1, i32 0, i32 0
  store ptr %3, ptr %_M_cur2, align 8
  br label %if.end

if.end:                                           ; preds = %if.then, %entry
  %_M_cur3 = getelementptr inbounds %"struct.std::_Deque_iterator", ptr %this1, i32 0, i32 0
  %4 = load ptr, ptr %_M_cur3, align 8
  %incdec.ptr = getelementptr inbounds %"class.node::inspector::protocol::json::(anonymous namespace)::State", ptr %4, i32 -1
  store ptr %incdec.ptr, ptr %_M_cur3, align 8
  ret ptr %this1
}

; Function Attrs: mustprogress nounwind uwtable
define internal void @_ZNSt5dequeIN4node9inspector8protocol4json12_GLOBAL__N_15StateESaIS5_EE3endEv(ptr noalias sret(%"struct.std::_Deque_iterator") align 8 %agg.result, ptr noundef nonnull align 8 dereferenceable(80) %this) #0 align 2 {
entry:
  %result.ptr = alloca ptr, align 8
  %this.addr = alloca ptr, align 8
  store ptr %agg.result, ptr %result.ptr, align 8
  store ptr %this, ptr %this.addr, align 8
  %this1 = load ptr, ptr %this.addr, align 8
  %_M_impl = getelementptr inbounds %"class.std::_Deque_base", ptr %this1, i32 0, i32 0
  %_M_finish = getelementptr inbounds %"struct.std::_Deque_base<node::inspector::protocol::json::(anonymous namespace)::State, std::allocator<node::inspector::protocol::json::(anonymous namespace)::State>>::_Deque_impl_data", ptr %_M_impl, i32 0, i32 3
  call void @_ZNSt15_Deque_iteratorIN4node9inspector8protocol4json12_GLOBAL__N_15StateERS5_PS5_EC2ERKS8_(ptr noundef nonnull align 8 dereferenceable(32) %agg.result, ptr noundef nonnull align 8 dereferenceable(32) %_M_finish) #13
  ret void
}

; Function Attrs: mustprogress nounwind uwtable
define internal void @_ZN4node9inspector8protocol4json12_GLOBAL__N_15State16StartElementTmplINSt7__cxx1112basic_stringIcSt11char_traitsIcESaIcEEEEEvPT_(ptr noundef nonnull align 4 dereferenceable(8) %this, ptr noundef %out) #0 align 2 {
entry:
  %this.addr = alloca ptr, align 8
  %out.addr = alloca ptr, align 8
  %delim = alloca i8, align 1
  store ptr %this, ptr %this.addr, align 8
  store ptr %out, ptr %out.addr, align 8
  %this1 = load ptr, ptr %this.addr, align 8
  %size_ = getelementptr inbounds %"class.node::inspector::protocol::json::(anonymous namespace)::State", ptr %this1, i32 0, i32 1
  %0 = load i32, ptr %size_, align 4
  %cmp = icmp ne i32 %0, 0
  br i1 %cmp, label %if.then, label %if.end

if.then:                                          ; preds = %entry
  %size_2 = getelementptr inbounds %"class.node::inspector::protocol::json::(anonymous namespace)::State", ptr %this1, i32 0, i32 1
  %1 = load i32, ptr %size_2, align 4
  %and = and i32 %1, 1
  %tobool = icmp ne i32 %and, 0
  br i1 %tobool, label %lor.rhs, label %lor.end

lor.rhs:                                          ; preds = %if.then
  %container_ = getelementptr inbounds %"class.node::inspector::protocol::json::(anonymous namespace)::State", ptr %this1, i32 0, i32 0
  %2 = load i32, ptr %container_, align 4
  %cmp3 = icmp eq i32 %2, 2
  br label %lor.end

lor.end:                                          ; preds = %lor.rhs, %if.then
  %3 = phi i1 [ true, %if.then ], [ %cmp3, %lor.rhs ]
  %cond = select i1 %3, i8 44, i8 58
  store i8 %cond, ptr %delim, align 1
  %4 = load ptr, ptr %out.addr, align 8
  %5 = load i8, ptr %delim, align 1
  call void @_ZNSt7__cxx1112basic_stringIcSt11char_traitsIcESaIcEE9push_backEc(ptr noundef nonnull align 8 dereferenceable(32) %4, i8 noundef signext %5)
  br label %if.end

if.end:                                           ; preds = %lor.end, %entry
  %size_4 = getelementptr inbounds %"class.node::inspector::protocol::json::(anonymous namespace)::State", ptr %this1, i32 0, i32 1
  %6 = load i32, ptr %size_4, align 4
  %inc = add nsw i32 %6, 1
  store i32 %inc, ptr %size_4, align 4
  ret void
}

; Function Attrs: mustprogress nounwind uwtable
define internal noundef nonnull align 4 dereferenceable(8) ptr @_ZNSt5dequeIN4node9inspector8protocol4json12_GLOBAL__N_15StateESaIS5_EE4backEv(ptr noundef nonnull align 8 dereferenceable(80) %this) #0 align 2 {
entry:
  %this.addr = alloca ptr, align 8
  %__tmp = alloca %"struct.std::_Deque_iterator", align 8
  store ptr %this, ptr %this.addr, align 8
  %this1 = load ptr, ptr %this.addr, align 8
  call void @_ZNSt5dequeIN4node9inspector8protocol4json12_GLOBAL__N_15StateESaIS5_EE3endEv(ptr sret(%"struct.std::_Deque_iterator") align 8 %__tmp, ptr noundef nonnull align 8 dereferenceable(80) %this1) #13
  %call = call noundef nonnull align 8 dereferenceable(32) ptr @_ZNSt15_Deque_iteratorIN4node9inspector8protocol4json12_GLOBAL__N_15StateERS5_PS5_EmmEv(ptr noundef nonnull align 8 dereferenceable(32) %__tmp) #13
  %call2 = call noundef nonnull align 4 dereferenceable(8) ptr @_ZNKSt15_Deque_iteratorIN4node9inspector8protocol4json12_GLOBAL__N_15StateERS5_PS5_EdeEv(ptr noundef nonnull align 8 dereferenceable(32) %__tmp) #13
  ret ptr %call2
}

; Function Attrs: mustprogress nounwind uwtable
define internal void @_ZN4node9inspector8protocol4json12_GLOBAL__N_111JSONEncoderINSt7__cxx1112basic_stringIcSt11char_traitsIcESaIcEEEE4EmitEc(ptr noundef nonnull align 8 dereferenceable(112) %this, i8 noundef signext %c) #0 align 2 {
entry:
  %this.addr = alloca ptr, align 8
  %c.addr = alloca i8, align 1
  store ptr %this, ptr %this.addr, align 8
  store i8 %c, ptr %c.addr, align 1
  %this1 = load ptr, ptr %this.addr, align 8
  %out_ = getelementptr inbounds %"class.node::inspector::protocol::json::(anonymous namespace)::JSONEncoder.193", ptr %this1, i32 0, i32 2
  %0 = load ptr, ptr %out_, align 8
  %1 = load i8, ptr %c.addr, align 1
  call void @_ZNSt7__cxx1112basic_stringIcSt11char_traitsIcESaIcEE9push_backEc(ptr noundef nonnull align 8 dereferenceable(32) %0, i8 noundef signext %1)
  ret void
}

; Function Attrs: mustprogress nounwind uwtable
define internal void @_ZN4node9inspector8protocol4json12_GLOBAL__N_15State12StartElementEPNSt7__cxx1112basic_stringIcSt11char_traitsIcESaIcEEE(ptr noundef nonnull align 4 dereferenceable(8) %this, ptr noundef %out) #0 align 2 {
entry:
  %this.addr = alloca ptr, align 8
  %out.addr = alloca ptr, align 8
  store ptr %this, ptr %this.addr, align 8
  store ptr %out, ptr %out.addr, align 8
  %this1 = load ptr, ptr %this.addr, align 8
  %0 = load ptr, ptr %out.addr, align 8
  call void @_ZN4node9inspector8protocol4json12_GLOBAL__N_15State16StartElementTmplINSt7__cxx1112basic_stringIcSt11char_traitsIcESaIcEEEEEvPT_(ptr noundef nonnull align 4 dereferenceable(8) %this1, ptr noundef %0)
  ret void
}

; Function Attrs: mustprogress nounwind uwtable
define internal noundef nonnull align 4 dereferenceable(8) ptr @_ZNSt5stackIN4node9inspector8protocol4json12_GLOBAL__N_15StateESt5dequeIS5_SaIS5_EEE3topEv(ptr noundef nonnull align 8 dereferenceable(80) %this) #0 align 2 {
entry:
  %this.addr = alloca ptr, align 8
  store ptr %this, ptr %this.addr, align 8
  %this1 = load ptr, ptr %this.addr, align 8
  %c = getelementptr inbounds %"class.std::stack", ptr %this1, i32 0, i32 0
  %call = call noundef nonnull align 4 dereferenceable(8) ptr @_ZNSt5dequeIN4node9inspector8protocol4json12_GLOBAL__N_15StateESaIS5_EE4backEv(ptr noundef nonnull align 8 dereferenceable(80) %c) #13
  ret ptr %call
}

; Function Attrs: mustprogress nounwind uwtable
define linkonce_odr dso_local noundef zeroext i1 @_ZNK4node9inspector8protocol6Status2okEv(ptr noundef nonnull align 8 dereferenceable(16) %this) #0 comdat align 2 {
entry:
  %this.addr = alloca ptr, align 8
  store ptr %this, ptr %this.addr, align 8
  %this1 = load ptr, ptr %this.addr, align 8
  %error = getelementptr inbounds %"struct.node::inspector::protocol::Status", ptr %this1, i32 0, i32 0
  %0 = load i32, ptr %error, align 8
  %cmp = icmp eq i32 %0, 0
  ret i1 %cmp
}

; Function Attrs: mustprogress nounwind uwtable
define internal void @_ZN4node9inspector8protocol4json12_GLOBAL__N_111JSONEncoderINSt7__cxx1112basic_stringIcSt11char_traitsIcESaIcEEEE14HandleMapBeginEv(ptr noundef nonnull align 8 dereferenceable(112) %this) unnamed_addr #0 align 2 {
entry:
  %this.addr = alloca ptr, align 8
  %ref.tmp = alloca i32, align 4
  store ptr %this, ptr %this.addr, align 8
  %this1 = load ptr, ptr %this.addr, align 8
  %status_ = getelementptr inbounds %"class.node::inspector::protocol::json::(anonymous namespace)::JSONEncoder.193", ptr %this1, i32 0, i32 3
  %0 = load ptr, ptr %status_, align 8
  %call = call noundef zeroext i1 @_ZNK4node9inspector8protocol6Status2okEv(ptr noundef nonnull align 8 dereferenceable(16) %0)
  br i1 %call, label %if.end, label %if.then

if.then:                                          ; preds = %entry
  br label %return

if.end:                                           ; preds = %entry
  %state_ = getelementptr inbounds %"class.node::inspector::protocol::json::(anonymous namespace)::JSONEncoder.193", ptr %this1, i32 0, i32 4
  %call2 = call noundef nonnull align 4 dereferenceable(8) ptr @_ZNSt5stackIN4node9inspector8protocol4json12_GLOBAL__N_15StateESt5dequeIS5_SaIS5_EEE3topEv(ptr noundef nonnull align 8 dereferenceable(80) %state_)
  %out_ = getelementptr inbounds %"class.node::inspector::protocol::json::(anonymous namespace)::JSONEncoder.193", ptr %this1, i32 0, i32 2
  %1 = load ptr, ptr %out_, align 8
  call void @_ZN4node9inspector8protocol4json12_GLOBAL__N_15State12StartElementEPNSt7__cxx1112basic_stringIcSt11char_traitsIcESaIcEEE(ptr noundef nonnull align 4 dereferenceable(8) %call2, ptr noundef %1)
  %state_3 = getelementptr inbounds %"class.node::inspector::protocol::json::(anonymous namespace)::JSONEncoder.193", ptr %this1, i32 0, i32 4
  store i32 1, ptr %ref.tmp, align 4
  %call4 = call noundef nonnull align 4 dereferenceable(8) ptr @_ZNSt5stackIN4node9inspector8protocol4json12_GLOBAL__N_15StateESt5dequeIS5_SaIS5_EEE7emplaceIJNS4_9ContainerEEEEDcDpOT_(ptr noundef nonnull align 8 dereferenceable(80) %state_3, ptr noundef nonnull align 4 dereferenceable(4) %ref.tmp)
  call void @_ZN4node9inspector8protocol4json12_GLOBAL__N_111JSONEncoderINSt7__cxx1112basic_stringIcSt11char_traitsIcESaIcEEEE4EmitEc(ptr noundef nonnull align 8 dereferenceable(112) %this1, i8 noundef signext 123)
  br label %return

return:                                           ; preds = %if.end, %if.then
  ret void
}