; Function Attrs: mustprogress nounwind uwtable
define internal void @_ZN4node9inspector8protocol4json12_GLOBAL__N_111JSONEncoderINSt7__cxx1112basic_stringIcSt11char_traitsIcESaIcEEEE14HandleMapBeginEv(ptr nocapture noundef nonnull align 8 dereferenceable(112) %this) unnamed_addr #1 align 2 {
entry:
  %ref.tmp = alloca i32, align 4
  %status_ = getelementptr inbounds i8, ptr %this, i64 24
  %0 = load ptr, ptr %status_, align 8
  %1 = load i32, ptr %0, align 8
  %cmp.i = icmp eq i32 %1, 0
  br i1 %cmp.i, label %if.end, label %return

if.end:                                           ; preds = %entry
  %state_ = getelementptr inbounds i8, ptr %this, i64 32
  %_M_finish.i.i.i = getelementptr inbounds i8, ptr %this, i64 80
  %2 = load ptr, ptr %_M_finish.i.i.i, align 8, !noalias !396
  %_M_first3.i.i.i.i = getelementptr inbounds i8, ptr %this, i64 88
  %3 = load ptr, ptr %_M_first3.i.i.i.i, align 8, !noalias !396
  %cmp.i.i.i = icmp eq ptr %2, %3
  br i1 %cmp.i.i.i, label %if.then.i.i.i, label %_ZNSt5stackIN4node9inspector8protocol4json12_GLOBAL__N_15StateESt5dequeIS5_SaIS5_EEE3topEv.exit

if.then.i.i.i:                                    ; preds = %if.end
  %_M_node5.i.i.i.i = getelementptr inbounds i8, ptr %this, i64 104
  %4 = load ptr, ptr %_M_node5.i.i.i.i, align 8, !noalias !396
  %add.ptr.i.i.i = getelementptr inbounds i8, ptr %4, i64 -8
  %5 = load ptr, ptr %add.ptr.i.i.i, align 8
  %add.ptr.i.i.i.i = getelementptr inbounds i8, ptr %5, i64 512
  br label %_ZNSt5stackIN4node9inspector8protocol4json12_GLOBAL__N_15StateESt5dequeIS5_SaIS5_EEE3topEv.exit

_ZNSt5stackIN4node9inspector8protocol4json12_GLOBAL__N_15StateESt5dequeIS5_SaIS5_EEE3topEv.exit: ; preds = %if.end, %if.then.i.i.i
  %6 = phi ptr [ %add.ptr.i.i.i.i, %if.then.i.i.i ], [ %2, %if.end ]
  %out_ = getelementptr inbounds i8, ptr %this, i64 16
  %size_.i.i = getelementptr inbounds i8, ptr %6, i64 -4
  %7 = load i32, ptr %size_.i.i, align 4
  %cmp.not.i.i = icmp eq i32 %7, 0
  br i1 %cmp.not.i.i, label %_ZN4node9inspector8protocol4json12_GLOBAL__N_15State12StartElementEPNSt7__cxx1112basic_stringIcSt11char_traitsIcESaIcEEE.exit, label %if.then.i.i

if.then.i.i:                                      ; preds = %_ZNSt5stackIN4node9inspector8protocol4json12_GLOBAL__N_15StateESt5dequeIS5_SaIS5_EEE3topEv.exit
  %incdec.ptr.i.i.i = getelementptr inbounds i8, ptr %6, i64 -8
  %8 = load ptr, ptr %out_, align 8
  %and.i.i = and i32 %7, 1
  %tobool.not.i.i = icmp eq i32 %and.i.i, 0
  %9 = load i32, ptr %incdec.ptr.i.i.i, align 4
  %cmp3.i.i = icmp eq i32 %9, 2
  %10 = select i1 %tobool.not.i.i, i1 true, i1 %cmp3.i.i
  %cond.i.i = select i1 %10, i8 44, i8 58
  tail call void @_ZNSt7__cxx1112basic_stringIcSt11char_traitsIcESaIcEE9push_backEc(ptr noundef nonnull align 8 dereferenceable(32) %8, i8 noundef signext %cond.i.i) #27
  %.pre.i.i = load i32, ptr %size_.i.i, align 4
  %11 = add nsw i32 %.pre.i.i, 1
  br label %_ZN4node9inspector8protocol4json12_GLOBAL__N_15State12StartElementEPNSt7__cxx1112basic_stringIcSt11char_traitsIcESaIcEEE.exit

_ZN4node9inspector8protocol4json12_GLOBAL__N_15State12StartElementEPNSt7__cxx1112basic_stringIcSt11char_traitsIcESaIcEEE.exit: ; preds = %_ZNSt5stackIN4node9inspector8protocol4json12_GLOBAL__N_15StateESt5dequeIS5_SaIS5_EEE3topEv.exit, %if.then.i.i
  %inc.i.i = phi i32 [ %11, %if.then.i.i ], [ 1, %_ZNSt5stackIN4node9inspector8protocol4json12_GLOBAL__N_15StateESt5dequeIS5_SaIS5_EEE3topEv.exit ]
  store i32 %inc.i.i, ptr %size_.i.i, align 4
  store i32 1, ptr %ref.tmp, align 4
  call fastcc void @_ZNSt5stackIN4node9inspector8protocol4json12_GLOBAL__N_15StateESt5dequeIS5_SaIS5_EEE7emplaceIJNS4_9ContainerEEEEDcDpOT_(ptr noundef nonnull align 8 dereferenceable(80) %state_, ptr noundef nonnull align 4 dereferenceable(4) %ref.tmp)
  %this.val = load ptr, ptr %out_, align 8
  tail call void @_ZNSt7__cxx1112basic_stringIcSt11char_traitsIcESaIcEE9push_backEc(ptr noundef nonnull align 8 dereferenceable(32) %this.val, i8 noundef signext 123) #27
  br label %return

return:                                           ; preds = %entry, %_ZN4node9inspector8protocol4json12_GLOBAL__N_15State12StartElementEPNSt7__cxx1112basic_stringIcSt11char_traitsIcESaIcEEE.exit
  ret void
}